; Function Attrs: mustprogress nofree norecurse nosync nounwind willreturn memory(read, inaccessiblemem: none) uwtable
define zeroext i1 @H5F_has_feature(ptr noundef readonly captures(none) %0, i32 noundef %1) local_unnamed_addr #1 {
  %3 = getelementptr inbounds nuw i8, ptr %0, i64 16
  %4 = load ptr, ptr %3, align 8, !tbaa !31
  %5 = load ptr, ptr %4, align 8, !tbaa !79
  %6 = getelementptr inbounds nuw i8, ptr %5, i64 32
  %7 = load i64, ptr %6, align 8, !tbaa !80
  %8 = zext i32 %1 to i64
  %9 = and i64 %7, %8
  %10 = icmp ne i64 %9, 0
  ret i1 %10
}